; Function Attrs: mustprogress uwtable
define hidden noundef zeroext i1 @_ZN6Assimp3PLY3DOM13ParseInstanceERNS_14IOStreamBufferIcEEPS1_PNS_11PLYImporterE(ptr noundef nonnull align 8 dereferenceable(80) %0, ptr noundef %1, ptr noundef %2) local_unnamed_addr #2 align 2 personality ptr @__gxx_personality_v0 {
  %4 = alloca %"class.std::vector", align 8
  call void @llvm.lifetime.start.p0(i64 24, ptr nonnull %4) #27
  call void @llvm.memset.p0.i64(ptr noundef nonnull align 8 dereferenceable(24) %4, i8 0, i64 24, i1 false)
  %5 = invoke noundef zeroext i1 @_ZN6Assimp14IOStreamBufferIcE11getNextLineERSt6vectorIcSaIcEE(ptr noundef nonnull align 8 dereferenceable(80) %0, ptr noundef nonnull align 8 dereferenceable(24) %4)
          to label %6 unwind label %14

6:                                                ; preds = %3
  %7 = invoke noundef ptr @_ZN6Assimp13DefaultLogger3getEv()
          to label %8 unwind label %14

8:                                                ; preds = %6
  invoke void @_ZN6Assimp6Logger12verboseDebugEPKc(ptr noundef nonnull align 8 dereferenceable(12) %7, ptr noundef nonnull @.str.82)
          to label %9 unwind label %14

9:                                                ; preds = %8
  %10 = invoke noundef zeroext i1 @_ZN6Assimp3PLY3DOM11ParseHeaderERNS_14IOStreamBufferIcEERSt6vectorIcSaIcEEb(ptr noundef nonnull align 8 dereferenceable(48) %1, ptr noundef nonnull align 8 dereferenceable(80) %0, ptr noundef nonnull align 8 dereferenceable(24) %4, i1 noundef zeroext false)
          to label %11 unwind label %14

11:                                               ; preds = %9
  br i1 %10, label %23, label %12

12:                                               ; preds = %11
  %13 = invoke noundef ptr @_ZN6Assimp13DefaultLogger3getEv()
          to label %.invoke unwind label %14

14:                                               ; preds = %.invoke, %27, %25, %23, %12, %9, %8, %6, %3
  %15 = landingpad { ptr, i32 }
          cleanup
  %16 = load ptr, ptr %4, align 8
  %.not.i.i.i = icmp eq ptr %16, null
  br i1 %.not.i.i.i, label %_ZNSt6vectorIcSaIcEED2Ev.exit, label %17

17:                                               ; preds = %14
  %18 = getelementptr inbounds nuw i8, ptr %4, i64 16
  %19 = load ptr, ptr %18, align 8
  %20 = ptrtoint ptr %19 to i64
  %21 = ptrtoint ptr %16 to i64
  %22 = sub i64 %20, %21
  call void @_ZdlPvm(ptr noundef nonnull %16, i64 noundef %22) #28
  br label %_ZNSt6vectorIcSaIcEED2Ev.exit

_ZNSt6vectorIcSaIcEED2Ev.exit:                    ; preds = %14, %17
  call void @llvm.lifetime.end.p0(i64 24, ptr nonnull %4) #27
  resume { ptr, i32 } %15

23:                                               ; preds = %11
  %24 = invoke noundef zeroext i1 @_ZN6Assimp14IOStreamBufferIcE11getNextLineERSt6vectorIcSaIcEE(ptr noundef nonnull align 8 dereferenceable(80) %0, ptr noundef nonnull align 8 dereferenceable(24) %4)
          to label %25 unwind label %14

25:                                               ; preds = %23
  %26 = invoke noundef zeroext i1 @_ZN6Assimp3PLY3DOM25ParseElementInstanceListsERNS_14IOStreamBufferIcEERSt6vectorIcSaIcEEPNS_11PLYImporterE(ptr noundef nonnull align 8 dereferenceable(48) %1, ptr noundef nonnull align 8 dereferenceable(80) %0, ptr noundef nonnull align 8 dereferenceable(24) %4, ptr noundef %2)
          to label %27 unwind label %14

27:                                               ; preds = %25
  %28 = invoke noundef ptr @_ZN6Assimp13DefaultLogger3getEv()
          to label %.invoke unwind label %14

.invoke:                                          ; preds = %12, %27
  %29 = phi ptr [ %28, %27 ], [ %13, %12 ]
  %30 = phi ptr [ @.str.84, %27 ], [ @.str.83, %12 ]
  invoke void @_ZN6Assimp6Logger12verboseDebugEPKc(ptr noundef nonnull align 8 dereferenceable(12) %29, ptr noundef nonnull %30)
          to label %31 unwind label %14

31:                                               ; preds = %.invoke
  %32 = load ptr, ptr %4, align 8
  %.not.i.i.i9 = icmp eq ptr %32, null
  br i1 %.not.i.i.i9, label %_ZNSt6vectorIcSaIcEED2Ev.exit10, label %33

33:                                               ; preds = %31
  %34 = getelementptr inbounds nuw i8, ptr %4, i64 16
  %35 = load ptr, ptr %34, align 8
  %36 = ptrtoint ptr %35 to i64
  %37 = ptrtoint ptr %32 to i64
  %38 = sub i64 %36, %37
  call void @_ZdlPvm(ptr noundef nonnull %32, i64 noundef %38) #28
  br label %_ZNSt6vectorIcSaIcEED2Ev.exit10

_ZNSt6vectorIcSaIcEED2Ev.exit10:                  ; preds = %31, %33
  call void @llvm.lifetime.end.p0(i64 24, ptr nonnull %4) #27
  ret i1 %10
}